---
triple:          'arm64-apple-darwin'
binary-path:     A
relocations:
  - { offsetInCU: 0x5C, offset: 0x5C, size: 0x8, addend: 0x0, symName: __ZNSt3__1L19piecewise_constructE, symObjAddr: 0x3CCF, symBinAddr: 0x100007CA7, symSize: 0x0 }
  - { offsetInCU: 0x6042, offset: 0x6042, size: 0x8, addend: 0x0, symName: __ZNSt3__124__put_character_sequenceB7v160006IcNS_11char_traitsIcEEEERNS_13basic_ostreamIT_T0_EES7_PKS4_m, symObjAddr: 0x3030, symBinAddr: 0x100006E04, symSize: 0x1EC }
  - { offsetInCU: 0x73DE, offset: 0x73DE, size: 0x8, addend: 0x0, symName: __ZNSt3__1rsB7v160006IcNS_11char_traitsIcEEEERNS_13basic_istreamIT_T0_EES7_RS4_, symObjAddr: 0x268, symBinAddr: 0x10000403C, symSize: 0x190 }
  - { offsetInCU: 0x7D3E, offset: 0x7D3E, size: 0x8, addend: 0x0, symName: __ZNSt3__1lsB7v160006INS_11char_traitsIcEEEERNS_13basic_ostreamIcT_EES6_PKc, symObjAddr: 0x4A4, symBinAddr: 0x100004278, symSize: 0x48 }
  - { offsetInCU: 0x7D84, offset: 0x7D84, size: 0x8, addend: 0x0, symName: __ZNSt3__14endlB7v160006IcNS_11char_traitsIcEEEERNS_13basic_ostreamIT_T0_EES7_, symObjAddr: 0x518, symBinAddr: 0x1000042EC, symSize: 0x58 }
  - { offsetInCU: 0x8359, offset: 0x8359, size: 0x8, addend: 0x0, symName: __ZNSt3__119__debug_db_insert_cB7v160006INS_13unordered_mapIcxNS_4hashIcEENS_8equal_toIcEENS_9allocatorINS_4pairIKcxEEEEEEEEvPT_, symObjAddr: 0x860, symBinAddr: 0x100004634, symSize: 0x10 }
  - { offsetInCU: 0x838A, offset: 0x838A, size: 0x8, addend: 0x0, symName: __ZNSt3__118__debug_db_erase_cB7v160006INS_12__hash_tableINS_17__hash_value_typeIcxEENS_22__unordered_map_hasherIcS3_NS_4hashIcEENS_8equal_toIcEELb1EEENS_21__unordered_map_equalIcS3_S8_S6_Lb1EEENS_9allocatorIS3_EEEEEEvPT_, symObjAddr: 0xFE0, symBinAddr: 0x100004DB4, symSize: 0x10 }
  - { offsetInCU: 0x83EE, offset: 0x83EE, size: 0x8, addend: 0x0, symName: __ZNSt3__119__libcpp_deallocateB7v160006EPvmm, symObjAddr: 0x1174, symBinAddr: 0x100004F48, symSize: 0x30 }
  - { offsetInCU: 0x8436, offset: 0x8436, size: 0x8, addend: 0x0, symName: __ZNSt3__127__do_deallocate_handle_sizeB7v160006IJEEEvPvmDpT_, symObjAddr: 0x11A4, symBinAddr: 0x100004F78, symSize: 0x28 }
  - { offsetInCU: 0x8474, offset: 0x8474, size: 0x8, addend: 0x0, symName: __ZNSt3__124__libcpp_operator_deleteB7v160006IJPvEEEvDpT_, symObjAddr: 0x11CC, symBinAddr: 0x100004FA0, symSize: 0x24 }
  - { offsetInCU: 0x84E0, offset: 0x84E0, size: 0x8, addend: 0x0, symName: __ZNSt3__116forward_as_tupleB7v160006IJRKcEEENS_5tupleIJDpOT_EEES6_, symObjAddr: 0x1968, symBinAddr: 0x10000573C, symSize: 0x2C }
  - { offsetInCU: 0x8519, offset: 0x8519, size: 0x8, addend: 0x0, symName: __ZNSt3__116forward_as_tupleB7v160006IJEEENS_5tupleIJDpOT_EEES4_, symObjAddr: 0x1994, symBinAddr: 0x100005768, symSize: 0x4 }
  - { offsetInCU: 0x853D, offset: 0x853D, size: 0x8, addend: 0x0, symName: __ZNSt3__116__constrain_hashB7v160006Emm, symObjAddr: 0x1A48, symBinAddr: 0x10000581C, symSize: 0x98 }
  - { offsetInCU: 0x8577, offset: 0x8577, size: 0x8, addend: 0x0, symName: __ZNSt3__13maxB7v160006ImEERKT_S3_S3_, symObjAddr: 0x1D68, symBinAddr: 0x100005B3C, symSize: 0x2C }
  - { offsetInCU: 0x85BA, offset: 0x85BA, size: 0x8, addend: 0x0, symName: __ZNSt3__116__is_hash_power2B7v160006Em, symObjAddr: 0x1D94, symBinAddr: 0x100005B68, symSize: 0x50 }
  - { offsetInCU: 0x8604, offset: 0x8604, size: 0x8, addend: 0x0, symName: __ZNSt3__117__libcpp_allocateB7v160006Emm, symObjAddr: 0x22E8, symBinAddr: 0x1000060BC, symSize: 0x28 }
  - { offsetInCU: 0x8641, offset: 0x8641, size: 0x8, addend: 0x0, symName: __ZNSt3__121__libcpp_operator_newB7v160006IJmEEEPvDpT_, symObjAddr: 0x2324, symBinAddr: 0x1000060F8, symSize: 0x24 }
  - { offsetInCU: 0x8685, offset: 0x8685, size: 0x8, addend: 0x0, symName: __ZNSt3__13getB7v160006ILm0EJRKcEEERNS_13tuple_elementIXT_ENS_5tupleIJDpT0_EEEE4typeERS7_, symObjAddr: 0x25A0, symBinAddr: 0x100006374, symSize: 0x24 }
  - { offsetInCU: 0x86C8, offset: 0x86C8, size: 0x8, addend: 0x0, symName: __ZNSt3__116__next_hash_pow2B7v160006Em, symObjAddr: 0x2AAC, symBinAddr: 0x100006880, symSize: 0x6C }
  - { offsetInCU: 0x86F4, offset: 0x86F4, size: 0x8, addend: 0x0, symName: __ZNSt3__125__debug_db_invalidate_allB7v160006INS_12__hash_tableINS_17__hash_value_typeIcxEENS_22__unordered_map_hasherIcS3_NS_4hashIcEENS_8equal_toIcEELb1EEENS_21__unordered_map_equalIcS3_S8_S6_Lb1EEENS_9allocatorIS3_EEEEEEvPT_, symObjAddr: 0x2B18, symBinAddr: 0x1000068EC, symSize: 0x10 }
  - { offsetInCU: 0x8741, offset: 0x8741, size: 0x8, addend: 0x0, symName: __ZNSt3__112__libcpp_clzB7v160006Em, symObjAddr: 0x2C80, symBinAddr: 0x100006A54, symSize: 0x1C }
  - { offsetInCU: 0x876D, offset: 0x876D, size: 0x8, addend: 0x0, symName: __ZNSt3__13maxB7v160006ImNS_6__lessImmEEEERKT_S5_S5_T0_, symObjAddr: 0x2C9C, symBinAddr: 0x100006A70, symSize: 0x54 }
  - { offsetInCU: 0x8859, offset: 0x8859, size: 0x8, addend: 0x0, symName: __ZNSt3__116__pad_and_outputB7v160006IcNS_11char_traitsIcEEEENS_19ostreambuf_iteratorIT_T0_EES6_PKS4_S8_S8_RNS_8ios_baseES4_, symObjAddr: 0x326C, symBinAddr: 0x100007040, symSize: 0x240 }
  - { offsetInCU: 0x8928, offset: 0x8928, size: 0x8, addend: 0x0, symName: __ZNSt3__119__debug_db_insert_cB7v160006INS_12basic_stringIcNS_11char_traitsIcEENS_9allocatorIcEEEEEEvPT_, symObjAddr: 0x36F4, symBinAddr: 0x1000074C8, symSize: 0x10 }
  - { offsetInCU: 0x8959, offset: 0x8959, size: 0x8, addend: 0x0, symName: __ZNSt3__112__to_addressB7v160006IKcEEPT_S3_, symObjAddr: 0x37C0, symBinAddr: 0x100007594, symSize: 0x14 }
  - { offsetInCU: 0x89C1, offset: 0x89C1, size: 0x8, addend: 0x0, symName: __ZNSt3__19use_facetB7v160006INS_5ctypeIcEEEERKT_RKNS_6localeE, symObjAddr: 0x39D4, symBinAddr: 0x1000077A8, symSize: 0x2C }
  - { offsetInCU: 0x8E90, offset: 0x8E90, size: 0x8, addend: 0x0, symName: __ZNSt3__118__constexpr_strlenB7v160006EPKc, symObjAddr: 0x3A38, symBinAddr: 0x10000780C, symSize: 0x24 }
  - { offsetInCU: 0x8F5F, offset: 0x8F5F, size: 0x8, addend: 0x0, symName: __ZSt28__throw_bad_array_new_lengthB7v160006v, symObjAddr: 0x22B4, symBinAddr: 0x100006088, symSize: 0x34 }
  - { offsetInCU: 0xB8C9, offset: 0xB8C9, size: 0x8, addend: 0x0, symName: _main, symObjAddr: 0x0, symBinAddr: 0x100003DD4, symSize: 0x268 }
  - { offsetInCU: 0xB9CB, offset: 0xB9CB, size: 0x8, addend: 0x0, symName: __ZNSt3__113unordered_mapIcxNS_4hashIcEENS_8equal_toIcEENS_9allocatorINS_4pairIKcxEEEEEC1B7v160006Ev, symObjAddr: 0x3F8, symBinAddr: 0x1000041CC, symSize: 0x2C }
  - { offsetInCU: 0xB9F5, offset: 0xB9F5, size: 0x8, addend: 0x0, symName: __ZNSt3__113unordered_mapIcxNS_4hashIcEENS_8equal_toIcEENS_9allocatorINS_4pairIKcxEEEEEixERS7_, symObjAddr: 0x424, symBinAddr: 0x1000041F8, symSize: 0x80 }
  - { offsetInCU: 0xBA2C, offset: 0xBA2C, size: 0x8, addend: 0x0, symName: __ZNSt3__113basic_ostreamIcNS_11char_traitsIcEEElsB7v160006EPFRS3_S4_E, symObjAddr: 0x4EC, symBinAddr: 0x1000042C0, symSize: 0x2C }
  - { offsetInCU: 0xBA60, offset: 0xBA60, size: 0x8, addend: 0x0, symName: __ZNSt3__113unordered_mapIcxNS_4hashIcEENS_8equal_toIcEENS_9allocatorINS_4pairIKcxEEEEE5clearB7v160006Ev, symObjAddr: 0x570, symBinAddr: 0x100004344, symSize: 0x24 }
  - { offsetInCU: 0xBA86, offset: 0xBA86, size: 0x8, addend: 0x0, symName: __ZNSt3__113unordered_mapIcxNS_4hashIcEENS_8equal_toIcEENS_9allocatorINS_4pairIKcxEEEEED1B7v160006Ev, symObjAddr: 0x594, symBinAddr: 0x100004368, symSize: 0x2C }
  - { offsetInCU: 0xBB4D, offset: 0xBB4D, size: 0x8, addend: 0x0, symName: __ZNKSt3__113basic_istreamIcNS_11char_traitsIcEEE6sentrycvbB7v160006Ev, symObjAddr: 0x5C0, symBinAddr: 0x100004394, symSize: 0x1C }
  - { offsetInCU: 0xBB73, offset: 0xBB73, size: 0x8, addend: 0x0, symName: __ZNKSt3__19basic_iosIcNS_11char_traitsIcEEE5rdbufB7v160006Ev, symObjAddr: 0x5DC, symBinAddr: 0x1000043B0, symSize: 0x24 }
  - { offsetInCU: 0xBB9B, offset: 0xBB9B, size: 0x8, addend: 0x0, symName: __ZNSt3__115basic_streambufIcNS_11char_traitsIcEEE6sbumpcB7v160006Ev, symObjAddr: 0x600, symBinAddr: 0x1000043D4, symSize: 0x78 }
  - { offsetInCU: 0xBBC1, offset: 0xBBC1, size: 0x8, addend: 0x0, symName: __ZNSt3__111char_traitsIcE11eq_int_typeEii, symObjAddr: 0x678, symBinAddr: 0x10000444C, symSize: 0x28 }
  - { offsetInCU: 0xBBF2, offset: 0xBBF2, size: 0x8, addend: 0x0, symName: __ZNSt3__111char_traitsIcE3eofEv, symObjAddr: 0x6A0, symBinAddr: 0x100004474, symSize: 0x8 }
  - { offsetInCU: 0xBC06, offset: 0xBC06, size: 0x8, addend: 0x0, symName: __ZNSt3__111char_traitsIcE12to_char_typeEi, symObjAddr: 0x6A8, symBinAddr: 0x10000447C, symSize: 0x18 }
  - { offsetInCU: 0xBC29, offset: 0xBC29, size: 0x8, addend: 0x0, symName: __ZNSt3__18ios_base18__setstate_nothrowB7v160006Ej, symObjAddr: 0x6C0, symBinAddr: 0x100004494, symSize: 0x64 }
  - { offsetInCU: 0xBC5E, offset: 0xBC5E, size: 0x8, addend: 0x0, symName: __ZNKSt3__19basic_iosIcNS_11char_traitsIcEEE10exceptionsB7v160006Ev, symObjAddr: 0x724, symBinAddr: 0x1000044F8, symSize: 0x24 }
  - { offsetInCU: 0xBC84, offset: 0xBC84, size: 0x8, addend: 0x0, symName: __ZNSt3__19basic_iosIcNS_11char_traitsIcEEE8setstateB7v160006Ej, symObjAddr: 0x754, symBinAddr: 0x100004528, symSize: 0x2C }
  - { offsetInCU: 0xBCB9, offset: 0xBCB9, size: 0x8, addend: 0x0, symName: __ZNKSt3__18ios_base5rdbufB7v160006Ev, symObjAddr: 0x780, symBinAddr: 0x100004554, symSize: 0x18 }
  - { offsetInCU: 0xBCDF, offset: 0xBCDF, size: 0x8, addend: 0x0, symName: __ZNSt3__111char_traitsIcE11to_int_typeEc, symObjAddr: 0x798, symBinAddr: 0x10000456C, symSize: 0x14 }
  - { offsetInCU: 0xBD02, offset: 0xBD02, size: 0x8, addend: 0x0, symName: __ZNKSt3__18ios_base10exceptionsB7v160006Ev, symObjAddr: 0x7AC, symBinAddr: 0x100004580, symSize: 0x18 }
  - { offsetInCU: 0xBD2A, offset: 0xBD2A, size: 0x8, addend: 0x0, symName: __ZNSt3__18ios_base8setstateB7v160006Ej, symObjAddr: 0x7C4, symBinAddr: 0x100004598, symSize: 0x34 }
  - { offsetInCU: 0xBD61, offset: 0xBD61, size: 0x8, addend: 0x0, symName: __ZNSt3__113unordered_mapIcxNS_4hashIcEENS_8equal_toIcEENS_9allocatorINS_4pairIKcxEEEEEC2B7v160006Ev, symObjAddr: 0x7F8, symBinAddr: 0x1000045CC, symSize: 0x3C }
  - { offsetInCU: 0xBD8B, offset: 0xBD8B, size: 0x8, addend: 0x0, symName: __ZNSt3__112__hash_tableINS_17__hash_value_typeIcxEENS_22__unordered_map_hasherIcS2_NS_4hashIcEENS_8equal_toIcEELb1EEENS_21__unordered_map_equalIcS2_S7_S5_Lb1EEENS_9allocatorIS2_EEEC1Ev, symObjAddr: 0x834, symBinAddr: 0x100004608, symSize: 0x2C }
  - { offsetInCU: 0xBDB7, offset: 0xBDB7, size: 0x8, addend: 0x0, symName: __ZNSt3__112__hash_tableINS_17__hash_value_typeIcxEENS_22__unordered_map_hasherIcS2_NS_4hashIcEENS_8equal_toIcEELb1EEENS_21__unordered_map_equalIcS2_S7_S5_Lb1EEENS_9allocatorIS2_EEEC2Ev, symObjAddr: 0x870, symBinAddr: 0x100004644, symSize: 0x7C }
  - { offsetInCU: 0xBDE3, offset: 0xBDE3, size: 0x8, addend: 0x0, symName: __ZNSt3__110unique_ptrIA_PNS_16__hash_node_baseIPNS_11__hash_nodeINS_17__hash_value_typeIcxEEPvEEEENS_25__bucket_list_deallocatorINS_9allocatorIS9_EEEEEC1B7v160006ILb1EvEEv, symObjAddr: 0x8EC, symBinAddr: 0x1000046C0, symSize: 0x2C }
  - { offsetInCU: 0xBE18, offset: 0xBE18, size: 0x8, addend: 0x0, symName: __ZNSt3__117__compressed_pairINS_16__hash_node_baseIPNS_11__hash_nodeINS_17__hash_value_typeIcxEEPvEEEENS_9allocatorIS6_EEEC1B7v160006ILb1EvEEv, symObjAddr: 0x918, symBinAddr: 0x1000046EC, symSize: 0x2C }
  - { offsetInCU: 0xBE57, offset: 0xBE57, size: 0x8, addend: 0x0, symName: __ZNSt3__117__compressed_pairImNS_22__unordered_map_hasherIcNS_17__hash_value_typeIcxEENS_4hashIcEENS_8equal_toIcEELb1EEEEC1B7v160006IiNS_18__default_init_tagEEEOT_OT0_, symObjAddr: 0x944, symBinAddr: 0x100004718, symSize: 0x3C }
  - { offsetInCU: 0xBEB4, offset: 0xBEB4, size: 0x8, addend: 0x0, symName: __ZNSt3__117__compressed_pairIfNS_21__unordered_map_equalIcNS_17__hash_value_typeIcxEENS_8equal_toIcEENS_4hashIcEELb1EEEEC1B7v160006IfNS_18__default_init_tagEEEOT_OT0_, symObjAddr: 0x980, symBinAddr: 0x100004754, symSize: 0x3C }
  - { offsetInCU: 0xBF0C, offset: 0xBF0C, size: 0x8, addend: 0x0, symName: __ZNSt3__110unique_ptrIA_PNS_16__hash_node_baseIPNS_11__hash_nodeINS_17__hash_value_typeIcxEEPvEEEENS_25__bucket_list_deallocatorINS_9allocatorIS9_EEEEEC2B7v160006ILb1EvEEv, symObjAddr: 0x9BC, symBinAddr: 0x100004790, symSize: 0x3C }
  - { offsetInCU: 0xBF46, offset: 0xBF46, size: 0x8, addend: 0x0, symName: __ZNSt3__117__compressed_pairIPPNS_16__hash_node_baseIPNS_11__hash_nodeINS_17__hash_value_typeIcxEEPvEEEENS_25__bucket_list_deallocatorINS_9allocatorIS9_EEEEEC1B7v160006INS_16__value_init_tagESH_EEOT_OT0_, symObjAddr: 0x9F8, symBinAddr: 0x1000047CC, symSize: 0x3C }
  - { offsetInCU: 0xBF9E, offset: 0xBF9E, size: 0x8, addend: 0x0, symName: __ZNSt3__117__compressed_pairIPPNS_16__hash_node_baseIPNS_11__hash_nodeINS_17__hash_value_typeIcxEEPvEEEENS_25__bucket_list_deallocatorINS_9allocatorIS9_EEEEEC2B7v160006INS_16__value_init_tagESH_EEOT_OT0_, symObjAddr: 0xA34, symBinAddr: 0x100004808, symSize: 0x40 }
  - { offsetInCU: 0xBFF6, offset: 0xBFF6, size: 0x8, addend: 0x0, symName: __ZNSt3__122__compressed_pair_elemIPPNS_16__hash_node_baseIPNS_11__hash_nodeINS_17__hash_value_typeIcxEEPvEEEELi0ELb0EEC2B7v160006ENS_16__value_init_tagE, symObjAddr: 0xA74, symBinAddr: 0x100004848, symSize: 0x18 }
  - { offsetInCU: 0xC02B, offset: 0xC02B, size: 0x8, addend: 0x0, symName: __ZNSt3__122__compressed_pair_elemINS_25__bucket_list_deallocatorINS_9allocatorIPNS_16__hash_node_baseIPNS_11__hash_nodeINS_17__hash_value_typeIcxEEPvEEEEEEEELi1ELb0EEC2B7v160006ENS_16__value_init_tagE, symObjAddr: 0xA8C, symBinAddr: 0x100004860, symSize: 0x2C }
  - { offsetInCU: 0xC060, offset: 0xC060, size: 0x8, addend: 0x0, symName: __ZNSt3__125__bucket_list_deallocatorINS_9allocatorIPNS_16__hash_node_baseIPNS_11__hash_nodeINS_17__hash_value_typeIcxEEPvEEEEEEEC1B7v160006Ev, symObjAddr: 0xAB8, symBinAddr: 0x10000488C, symSize: 0x2C }
  - { offsetInCU: 0xC08A, offset: 0xC08A, size: 0x8, addend: 0x0, symName: __ZNSt3__125__bucket_list_deallocatorINS_9allocatorIPNS_16__hash_node_baseIPNS_11__hash_nodeINS_17__hash_value_typeIcxEEPvEEEEEEEC2B7v160006Ev, symObjAddr: 0xAE4, symBinAddr: 0x1000048B8, symSize: 0x40 }
  - { offsetInCU: 0xC0B4, offset: 0xC0B4, size: 0x8, addend: 0x0, symName: __ZNSt3__117__compressed_pairImNS_9allocatorIPNS_16__hash_node_baseIPNS_11__hash_nodeINS_17__hash_value_typeIcxEEPvEEEEEEEC1B7v160006IiNS_18__default_init_tagEEEOT_OT0_, symObjAddr: 0xB24, symBinAddr: 0x1000048F8, symSize: 0x3C }
  - { offsetInCU: 0xC10C, offset: 0xC10C, size: 0x8, addend: 0x0, symName: __ZNSt3__117__compressed_pairImNS_9allocatorIPNS_16__hash_node_baseIPNS_11__hash_nodeINS_17__hash_value_typeIcxEEPvEEEEEEEC2B7v160006IiNS_18__default_init_tagEEEOT_OT0_, symObjAddr: 0xB60, symBinAddr: 0x100004934, symSize: 0x40 }
  - { offsetInCU: 0xC164, offset: 0xC164, size: 0x8, addend: 0x0, symName: __ZNSt3__122__compressed_pair_elemImLi0ELb0EEC2B7v160006IivEEOT_, symObjAddr: 0xBA0, symBinAddr: 0x100004974, symSize: 0x24 }
  - { offsetInCU: 0xC1A6, offset: 0xC1A6, size: 0x8, addend: 0x0, symName: __ZNSt3__122__compressed_pair_elemINS_9allocatorIPNS_16__hash_node_baseIPNS_11__hash_nodeINS_17__hash_value_typeIcxEEPvEEEEEELi1ELb1EEC2B7v160006ENS_18__default_init_tagE, symObjAddr: 0xBC4, symBinAddr: 0x100004998, symSize: 0x2C }
  - { offsetInCU: 0xC1DB, offset: 0xC1DB, size: 0x8, addend: 0x0, symName: __ZNSt3__19allocatorIPNS_16__hash_node_baseIPNS_11__hash_nodeINS_17__hash_value_typeIcxEEPvEEEEEC2B7v160006Ev, symObjAddr: 0xBF0, symBinAddr: 0x1000049C4, symSize: 0x2C }
  - { offsetInCU: 0xC205, offset: 0xC205, size: 0x8, addend: 0x0, symName: __ZNSt3__116__non_trivial_ifILb1ENS_9allocatorIPNS_16__hash_node_baseIPNS_11__hash_nodeINS_17__hash_value_typeIcxEEPvEEEEEEEC2B7v160006Ev, symObjAddr: 0xC1C, symBinAddr: 0x1000049F0, symSize: 0x14 }
  - { offsetInCU: 0xC22F, offset: 0xC22F, size: 0x8, addend: 0x0, symName: __ZNSt3__117__compressed_pairINS_16__hash_node_baseIPNS_11__hash_nodeINS_17__hash_value_typeIcxEEPvEEEENS_9allocatorIS6_EEEC2B7v160006ILb1EvEEv, symObjAddr: 0xC30, symBinAddr: 0x100004A04, symSize: 0x34 }
  - { offsetInCU: 0xC264, offset: 0xC264, size: 0x8, addend: 0x0, symName: __ZNSt3__122__compressed_pair_elemINS_16__hash_node_baseIPNS_11__hash_nodeINS_17__hash_value_typeIcxEEPvEEEELi0ELb0EEC2B7v160006ENS_16__value_init_tagE, symObjAddr: 0xC64, symBinAddr: 0x100004A38, symSize: 0x2C }
  - { offsetInCU: 0xC299, offset: 0xC299, size: 0x8, addend: 0x0, symName: __ZNSt3__122__compressed_pair_elemINS_9allocatorINS_11__hash_nodeINS_17__hash_value_typeIcxEEPvEEEELi1ELb1EEC2B7v160006ENS_16__value_init_tagE, symObjAddr: 0xC90, symBinAddr: 0x100004A64, symSize: 0x2C }
  - { offsetInCU: 0xC2CE, offset: 0xC2CE, size: 0x8, addend: 0x0, symName: __ZNSt3__116__hash_node_baseIPNS_11__hash_nodeINS_17__hash_value_typeIcxEEPvEEEC1B7v160006Ev, symObjAddr: 0xCBC, symBinAddr: 0x100004A90, symSize: 0x2C }
  - { offsetInCU: 0xC2F8, offset: 0xC2F8, size: 0x8, addend: 0x0, symName: __ZNSt3__116__hash_node_baseIPNS_11__hash_nodeINS_17__hash_value_typeIcxEEPvEEEC2B7v160006Ev, symObjAddr: 0xCE8, symBinAddr: 0x100004ABC, symSize: 0x18 }
  - { offsetInCU: 0xC322, offset: 0xC322, size: 0x8, addend: 0x0, symName: __ZNSt3__19allocatorINS_11__hash_nodeINS_17__hash_value_typeIcxEEPvEEEC2B7v160006Ev, symObjAddr: 0xD00, symBinAddr: 0x100004AD4, symSize: 0x2C }
  - { offsetInCU: 0xC34C, offset: 0xC34C, size: 0x8, addend: 0x0, symName: __ZNSt3__116__non_trivial_ifILb1ENS_9allocatorINS_11__hash_nodeINS_17__hash_value_typeIcxEEPvEEEEEC2B7v160006Ev, symObjAddr: 0xD2C, symBinAddr: 0x100004B00, symSize: 0x14 }
  - { offsetInCU: 0xC376, offset: 0xC376, size: 0x8, addend: 0x0, symName: __ZNSt3__117__compressed_pairImNS_22__unordered_map_hasherIcNS_17__hash_value_typeIcxEENS_4hashIcEENS_8equal_toIcEELb1EEEEC2B7v160006IiNS_18__default_init_tagEEEOT_OT0_, symObjAddr: 0xD40, symBinAddr: 0x100004B14, symSize: 0x40 }
  - { offsetInCU: 0xC3CE, offset: 0xC3CE, size: 0x8, addend: 0x0, symName: __ZNSt3__122__compressed_pair_elemINS_22__unordered_map_hasherIcNS_17__hash_value_typeIcxEENS_4hashIcEENS_8equal_toIcEELb1EEELi1ELb1EEC2B7v160006ENS_18__default_init_tagE, symObjAddr: 0xD80, symBinAddr: 0x100004B54, symSize: 0x2C }
  - { offsetInCU: 0xC403, offset: 0xC403, size: 0x8, addend: 0x0, symName: __ZNSt3__122__unordered_map_hasherIcNS_17__hash_value_typeIcxEENS_4hashIcEENS_8equal_toIcEELb1EEC2B7v160006Ev, symObjAddr: 0xDAC, symBinAddr: 0x100004B80, symSize: 0x14 }
  - { offsetInCU: 0xC42D, offset: 0xC42D, size: 0x8, addend: 0x0, symName: __ZNSt3__117__compressed_pairIfNS_21__unordered_map_equalIcNS_17__hash_value_typeIcxEENS_8equal_toIcEENS_4hashIcEELb1EEEEC2B7v160006IfNS_18__default_init_tagEEEOT_OT0_, symObjAddr: 0xDC0, symBinAddr: 0x100004B94, symSize: 0x40 }
  - { offsetInCU: 0xC485, offset: 0xC485, size: 0x8, addend: 0x0, symName: __ZNSt3__122__compressed_pair_elemIfLi0ELb0EEC2B7v160006IfvEEOT_, symObjAddr: 0xE00, symBinAddr: 0x100004BD4, symSize: 0x24 }
  - { offsetInCU: 0xC4C7, offset: 0xC4C7, size: 0x8, addend: 0x0, symName: __ZNSt3__122__compressed_pair_elemINS_21__unordered_map_equalIcNS_17__hash_value_typeIcxEENS_8equal_toIcEENS_4hashIcEELb1EEELi1ELb1EEC2B7v160006ENS_18__default_init_tagE, symObjAddr: 0xE24, symBinAddr: 0x100004BF8, symSize: 0x2C }
  - { offsetInCU: 0xC4FC, offset: 0xC4FC, size: 0x8, addend: 0x0, symName: __ZNSt3__121__unordered_map_equalIcNS_17__hash_value_typeIcxEENS_8equal_toIcEENS_4hashIcEELb1EEC2B7v160006Ev, symObjAddr: 0xE50, symBinAddr: 0x100004C24, symSize: 0x14 }
  - { offsetInCU: 0xC526, offset: 0xC526, size: 0x8, addend: 0x0, symName: __ZNSt3__113unordered_mapIcxNS_4hashIcEENS_8equal_toIcEENS_9allocatorINS_4pairIKcxEEEEED2B7v160006Ev, symObjAddr: 0xE64, symBinAddr: 0x100004C38, symSize: 0x2C }
  - { offsetInCU: 0xC550, offset: 0xC550, size: 0x8, addend: 0x0, symName: __ZNSt3__112__hash_tableINS_17__hash_value_typeIcxEENS_22__unordered_map_hasherIcS2_NS_4hashIcEENS_8equal_toIcEELb1EEENS_21__unordered_map_equalIcS2_S7_S5_Lb1EEENS_9allocatorIS2_EEED1Ev, symObjAddr: 0xE90, symBinAddr: 0x100004C64, symSize: 0x2C }
  - { offsetInCU: 0xC57C, offset: 0xC57C, size: 0x8, addend: 0x0, symName: __ZNSt3__112__hash_tableINS_17__hash_value_typeIcxEENS_22__unordered_map_hasherIcS2_NS_4hashIcEENS_8equal_toIcEELb1EEENS_21__unordered_map_equalIcS2_S7_S5_Lb1EEENS_9allocatorIS2_EEED2Ev, symObjAddr: 0xEBC, symBinAddr: 0x100004C90, symSize: 0x58 }
  - { offsetInCU: 0xC5A8, offset: 0xC5A8, size: 0x8, addend: 0x0, symName: __ZNSt3__112__hash_tableINS_17__hash_value_typeIcxEENS_22__unordered_map_hasherIcS2_NS_4hashIcEENS_8equal_toIcEELb1EEENS_21__unordered_map_equalIcS2_S7_S5_Lb1EEENS_9allocatorIS2_EEE17__deallocate_nodeEPNS_16__hash_node_baseIPNS_11__hash_nodeIS2_PvEEEE, symObjAddr: 0xF14, symBinAddr: 0x100004CE8, symSize: 0xA8 }
  - { offsetInCU: 0xC612, offset: 0xC612, size: 0x8, addend: 0x0, symName: __ZNSt3__117__compressed_pairINS_16__hash_node_baseIPNS_11__hash_nodeINS_17__hash_value_typeIcxEEPvEEEENS_9allocatorIS6_EEE5firstB7v160006Ev, symObjAddr: 0xFBC, symBinAddr: 0x100004D90, symSize: 0x24 }
  - { offsetInCU: 0xC638, offset: 0xC638, size: 0x8, addend: 0x0, symName: __ZNSt3__110unique_ptrIA_PNS_16__hash_node_baseIPNS_11__hash_nodeINS_17__hash_value_typeIcxEEPvEEEENS_25__bucket_list_deallocatorINS_9allocatorIS9_EEEEED1B7v160006Ev, symObjAddr: 0xFF0, symBinAddr: 0x100004DC4, symSize: 0x2C }
  - { offsetInCU: 0xC662, offset: 0xC662, size: 0x8, addend: 0x0, symName: __ZNSt3__112__hash_tableINS_17__hash_value_typeIcxEENS_22__unordered_map_hasherIcS2_NS_4hashIcEENS_8equal_toIcEELb1EEENS_21__unordered_map_equalIcS2_S7_S5_Lb1EEENS_9allocatorIS2_EEE12__node_allocB7v160006Ev, symObjAddr: 0x101C, symBinAddr: 0x100004DF0, symSize: 0x28 }
  - { offsetInCU: 0xC688, offset: 0xC688, size: 0x8, addend: 0x0, symName: __ZNSt3__116__hash_node_baseIPNS_11__hash_nodeINS_17__hash_value_typeIcxEEPvEEE8__upcastB7v160006Ev, symObjAddr: 0x1044, symBinAddr: 0x100004E18, symSize: 0x24 }
  - { offsetInCU: 0xC6AE, offset: 0xC6AE, size: 0x8, addend: 0x0, symName: __ZNSt3__116allocator_traitsINS_9allocatorINS_11__hash_nodeINS_17__hash_value_typeIcxEEPvEEEEE7destroyB7v160006INS_4pairIKcxEEvvEEvRS7_PT_, symObjAddr: 0x1068, symBinAddr: 0x100004E3C, symSize: 0x14 }
  - { offsetInCU: 0xC6E9, offset: 0xC6E9, size: 0x8, addend: 0x0, symName: __ZNSt3__122__hash_key_value_typesINS_17__hash_value_typeIcxEEE9__get_ptrB7v160006ERS2_, symObjAddr: 0x107C, symBinAddr: 0x100004E50, symSize: 0x24 }
  - { offsetInCU: 0xC70C, offset: 0xC70C, size: 0x8, addend: 0x0, symName: __ZNSt3__116allocator_traitsINS_9allocatorINS_11__hash_nodeINS_17__hash_value_typeIcxEEPvEEEEE10deallocateB7v160006ERS7_PS6_m, symObjAddr: 0x10A0, symBinAddr: 0x100004E74, symSize: 0x34 }
  - { offsetInCU: 0xC74E, offset: 0xC74E, size: 0x8, addend: 0x0, symName: __ZNSt3__117__compressed_pairINS_16__hash_node_baseIPNS_11__hash_nodeINS_17__hash_value_typeIcxEEPvEEEENS_9allocatorIS6_EEE6secondB7v160006Ev, symObjAddr: 0x10D4, symBinAddr: 0x100004EA8, symSize: 0x24 }
  - { offsetInCU: 0xC774, offset: 0xC774, size: 0x8, addend: 0x0, symName: __ZNSt3__122__compressed_pair_elemINS_9allocatorINS_11__hash_nodeINS_17__hash_value_typeIcxEEPvEEEELi1ELb1EE5__getB7v160006Ev, symObjAddr: 0x10F8, symBinAddr: 0x100004ECC, symSize: 0x14 }
  - { offsetInCU: 0xC79A, offset: 0xC79A, size: 0x8, addend: 0x0, symName: __ZNSt3__114pointer_traitsIPNS_16__hash_node_baseIPNS_11__hash_nodeINS_17__hash_value_typeIcxEEPvEEEEE10pointer_toB7v160006ERS8_, symObjAddr: 0x110C, symBinAddr: 0x100004EE0, symSize: 0x14 }
  - { offsetInCU: 0xC7BD, offset: 0xC7BD, size: 0x8, addend: 0x0, symName: __ZNSt3__117__hash_value_typeIcxE11__get_valueB7v160006Ev, symObjAddr: 0x1120, symBinAddr: 0x100004EF4, symSize: 0x14 }
  - { offsetInCU: 0xC7E3, offset: 0xC7E3, size: 0x8, addend: 0x0, symName: __ZNSt3__19allocatorINS_11__hash_nodeINS_17__hash_value_typeIcxEEPvEEE10deallocateB7v160006EPS5_m, symObjAddr: 0x1134, symBinAddr: 0x100004F08, symSize: 0x40 }
  - { offsetInCU: 0xC825, offset: 0xC825, size: 0x8, addend: 0x0, symName: __ZNSt3__122__compressed_pair_elemINS_16__hash_node_baseIPNS_11__hash_nodeINS_17__hash_value_typeIcxEEPvEEEELi0ELb0EE5__getB7v160006Ev, symObjAddr: 0x11F0, symBinAddr: 0x100004FC4, symSize: 0x14 }
  - { offsetInCU: 0xC84B, offset: 0xC84B, size: 0x8, addend: 0x0, symName: __ZNSt3__110unique_ptrIA_PNS_16__hash_node_baseIPNS_11__hash_nodeINS_17__hash_value_typeIcxEEPvEEEENS_25__bucket_list_deallocatorINS_9allocatorIS9_EEEEED2B7v160006Ev, symObjAddr: 0x1204, symBinAddr: 0x100004FD8, symSize: 0x30 }
  - { offsetInCU: 0xC875, offset: 0xC875, size: 0x8, addend: 0x0, symName: __ZNSt3__110unique_ptrIA_PNS_16__hash_node_baseIPNS_11__hash_nodeINS_17__hash_value_typeIcxEEPvEEEENS_25__bucket_list_deallocatorINS_9allocatorIS9_EEEEE5resetB7v160006EDn, symObjAddr: 0x1234, symBinAddr: 0x100005008, symSize: 0x6C }
  - { offsetInCU: 0xC8B6, offset: 0xC8B6, size: 0x8, addend: 0x0, symName: __ZNSt3__117__compressed_pairIPPNS_16__hash_node_baseIPNS_11__hash_nodeINS_17__hash_value_typeIcxEEPvEEEENS_25__bucket_list_deallocatorINS_9allocatorIS9_EEEEE5firstB7v160006Ev, symObjAddr: 0x12A0, symBinAddr: 0x100005074, symSize: 0x24 }
  - { offsetInCU: 0xC8DC, offset: 0xC8DC, size: 0x8, addend: 0x0, symName: __ZNSt3__117__compressed_pairIPPNS_16__hash_node_baseIPNS_11__hash_nodeINS_17__hash_value_typeIcxEEPvEEEENS_25__bucket_list_deallocatorINS_9allocatorIS9_EEEEE6secondB7v160006Ev, symObjAddr: 0x12C4, symBinAddr: 0x100005098, symSize: 0x28 }
  - { offsetInCU: 0xC902, offset: 0xC902, size: 0x8, addend: 0x0, symName: __ZNSt3__125__bucket_list_deallocatorINS_9allocatorIPNS_16__hash_node_baseIPNS_11__hash_nodeINS_17__hash_value_typeIcxEEPvEEEEEEEclB7v160006EPSA_, symObjAddr: 0x12EC, symBinAddr: 0x1000050C0, symSize: 0x58 }
  - { offsetInCU: 0xC937, offset: 0xC937, size: 0x8, addend: 0x0, symName: __ZNSt3__122__compressed_pair_elemIPPNS_16__hash_node_baseIPNS_11__hash_nodeINS_17__hash_value_typeIcxEEPvEEEELi0ELb0EE5__getB7v160006Ev, symObjAddr: 0x1344, symBinAddr: 0x100005118, symSize: 0x14 }
  - { offsetInCU: 0xC95D, offset: 0xC95D, size: 0x8, addend: 0x0, symName: __ZNSt3__122__compressed_pair_elemINS_25__bucket_list_deallocatorINS_9allocatorIPNS_16__hash_node_baseIPNS_11__hash_nodeINS_17__hash_value_typeIcxEEPvEEEEEEEELi1ELb0EE5__getB7v160006Ev, symObjAddr: 0x1358, symBinAddr: 0x10000512C, symSize: 0x14 }
  - { offsetInCU: 0xC983, offset: 0xC983, size: 0x8, addend: 0x0, symName: __ZNSt3__116allocator_traitsINS_9allocatorIPNS_16__hash_node_baseIPNS_11__hash_nodeINS_17__hash_value_typeIcxEEPvEEEEEEE10deallocateB7v160006ERSB_PSA_m, symObjAddr: 0x136C, symBinAddr: 0x100005140, symSize: 0x34 }
  - { offsetInCU: 0xC9C5, offset: 0xC9C5, size: 0x8, addend: 0x0, symName: __ZNSt3__125__bucket_list_deallocatorINS_9allocatorIPNS_16__hash_node_baseIPNS_11__hash_nodeINS_17__hash_value_typeIcxEEPvEEEEEEE7__allocB7v160006Ev, symObjAddr: 0x13A0, symBinAddr: 0x100005174, symSize: 0x24 }
  - { offsetInCU: 0xC9EB, offset: 0xC9EB, size: 0x8, addend: 0x0, symName: __ZNSt3__125__bucket_list_deallocatorINS_9allocatorIPNS_16__hash_node_baseIPNS_11__hash_nodeINS_17__hash_value_typeIcxEEPvEEEEEEE4sizeB7v160006Ev, symObjAddr: 0x13C4, symBinAddr: 0x100005198, symSize: 0x24 }
  - { offsetInCU: 0xCA11, offset: 0xCA11, size: 0x8, addend: 0x0, symName: __ZNSt3__19allocatorIPNS_16__hash_node_baseIPNS_11__hash_nodeINS_17__hash_value_typeIcxEEPvEEEEE10deallocateB7v160006EPS9_m, symObjAddr: 0x13E8, symBinAddr: 0x1000051BC, symSize: 0x40 }
  - { offsetInCU: 0xCA53, offset: 0xCA53, size: 0x8, addend: 0x0, symName: __ZNSt3__117__compressed_pairImNS_9allocatorIPNS_16__hash_node_baseIPNS_11__hash_nodeINS_17__hash_value_typeIcxEEPvEEEEEEE6secondB7v160006Ev, symObjAddr: 0x1428, symBinAddr: 0x1000051FC, symSize: 0x24 }
  - { offsetInCU: 0xCA79, offset: 0xCA79, size: 0x8, addend: 0x0, symName: __ZNSt3__122__compressed_pair_elemINS_9allocatorIPNS_16__hash_node_baseIPNS_11__hash_nodeINS_17__hash_value_typeIcxEEPvEEEEEELi1ELb1EE5__getB7v160006Ev, symObjAddr: 0x144C, symBinAddr: 0x100005220, symSize: 0x14 }
  - { offsetInCU: 0xCA9F, offset: 0xCA9F, size: 0x8, addend: 0x0, symName: __ZNSt3__117__compressed_pairImNS_9allocatorIPNS_16__hash_node_baseIPNS_11__hash_nodeINS_17__hash_value_typeIcxEEPvEEEEEEE5firstB7v160006Ev, symObjAddr: 0x1460, symBinAddr: 0x100005234, symSize: 0x24 }
  - { offsetInCU: 0xCAC5, offset: 0xCAC5, size: 0x8, addend: 0x0, symName: __ZNSt3__122__compressed_pair_elemImLi0ELb0EE5__getB7v160006Ev, symObjAddr: 0x1484, symBinAddr: 0x100005258, symSize: 0x14 }
  - { offsetInCU: 0xCAFF, offset: 0xCAFF, size: 0x8, addend: 0x0, symName: __ZNSt3__112__hash_tableINS_17__hash_value_typeIcxEENS_22__unordered_map_hasherIcS2_NS_4hashIcEENS_8equal_toIcEELb1EEENS_21__unordered_map_equalIcS2_S7_S5_Lb1EEENS_9allocatorIS2_EEE25__emplace_unique_key_argsIcJRKNS_21piecewise_construct_tENS_5tupleIJRKcEEENSI_IJEEEEEENS_4pairINS_15__hash_iteratorIPNS_11__hash_nodeIS2_PvEEEEbEERKT_DpOT0_, symObjAddr: 0x1498, symBinAddr: 0x10000526C, symSize: 0x4D0 }
  - { offsetInCU: 0xCC09, offset: 0xCC09, size: 0x8, addend: 0x0, symName: __ZNKSt3__115__hash_iteratorIPNS_11__hash_nodeINS_17__hash_value_typeIcxEEPvEEEptB7v160006Ev, symObjAddr: 0x1998, symBinAddr: 0x10000576C, symSize: 0x30 }
  - { offsetInCU: 0xCC2F, offset: 0xCC2F, size: 0x8, addend: 0x0, symName: __ZNSt3__112__hash_tableINS_17__hash_value_typeIcxEENS_22__unordered_map_hasherIcS2_NS_4hashIcEENS_8equal_toIcEELb1EEENS_21__unordered_map_equalIcS2_S7_S5_Lb1EEENS_9allocatorIS2_EEE13hash_functionB7v160006Ev, symObjAddr: 0x19C8, symBinAddr: 0x10000579C, symSize: 0x28 }
  - { offsetInCU: 0xCC55, offset: 0xCC55, size: 0x8, addend: 0x0, symName: __ZNKSt3__122__unordered_map_hasherIcNS_17__hash_value_typeIcxEENS_4hashIcEENS_8equal_toIcEELb1EEclB7v160006ERKc, symObjAddr: 0x19F0, symBinAddr: 0x1000057C4, symSize: 0x30 }
  - { offsetInCU: 0xCC8A, offset: 0xCC8A, size: 0x8, addend: 0x0, symName: __ZNKSt3__112__hash_tableINS_17__hash_value_typeIcxEENS_22__unordered_map_hasherIcS2_NS_4hashIcEENS_8equal_toIcEELb1EEENS_21__unordered_map_equalIcS2_S7_S5_Lb1EEENS_9allocatorIS2_EEE12bucket_countB7v160006Ev, symObjAddr: 0x1A20, symBinAddr: 0x1000057F4, symSize: 0x28 }
  - { offsetInCU: 0xCCB0, offset: 0xCCB0, size: 0x8, addend: 0x0, symName: __ZNKSt3__110unique_ptrIA_PNS_16__hash_node_baseIPNS_11__hash_nodeINS_17__hash_value_typeIcxEEPvEEEENS_25__bucket_list_deallocatorINS_9allocatorIS9_EEEEEixB7v160006Em, symObjAddr: 0x1AE0, symBinAddr: 0x1000058B4, symSize: 0x34 }
  - { offsetInCU: 0xCCE5, offset: 0xCCE5, size: 0x8, addend: 0x0, symName: __ZNKSt3__116__hash_node_baseIPNS_11__hash_nodeINS_17__hash_value_typeIcxEEPvEEE6__hashB7v160006Ev, symObjAddr: 0x1B14, symBinAddr: 0x1000058E8, symSize: 0x18 }
  - { offsetInCU: 0xCD0B, offset: 0xCD0B, size: 0x8, addend: 0x0, symName: __ZNSt3__112__hash_tableINS_17__hash_value_typeIcxEENS_22__unordered_map_hasherIcS2_NS_4hashIcEENS_8equal_toIcEELb1EEENS_21__unordered_map_equalIcS2_S7_S5_Lb1EEENS_9allocatorIS2_EEE6key_eqB7v160006Ev, symObjAddr: 0x1B2C, symBinAddr: 0x100005900, symSize: 0x28 }
  - { offsetInCU: 0xCD31, offset: 0xCD31, size: 0x8, addend: 0x0, symName: __ZNKSt3__121__unordered_map_equalIcNS_17__hash_value_typeIcxEENS_8equal_toIcEENS_4hashIcEELb1EEclB7v160006ERKS2_RKc, symObjAddr: 0x1B54, symBinAddr: 0x100005928, symSize: 0x48 }
  - { offsetInCU: 0xCD75, offset: 0xCD75, size: 0x8, addend: 0x0, symName: __ZNSt3__112__hash_tableINS_17__hash_value_typeIcxEENS_22__unordered_map_hasherIcS2_NS_4hashIcEENS_8equal_toIcEELb1EEENS_21__unordered_map_equalIcS2_S7_S5_Lb1EEENS_9allocatorIS2_EEE21__construct_node_hashIRKNS_21piecewise_construct_tEJNS_5tupleIJRKcEEENSI_IJEEEEEENS_10unique_ptrINS_11__hash_nodeIS2_PvEENS_22__hash_node_destructorINSB_ISQ_EEEEEEmOT_DpOT0_, symObjAddr: 0x1B9C, symBinAddr: 0x100005970, symSize: 0x150 }
  - { offsetInCU: 0xCE11, offset: 0xCE11, size: 0x8, addend: 0x0, symName: __ZNSt3__112__hash_tableINS_17__hash_value_typeIcxEENS_22__unordered_map_hasherIcS2_NS_4hashIcEENS_8equal_toIcEELb1EEENS_21__unordered_map_equalIcS2_S7_S5_Lb1EEENS_9allocatorIS2_EEE4sizeB7v160006Ev, symObjAddr: 0x1CEC, symBinAddr: 0x100005AC0, symSize: 0x28 }
  - { offsetInCU: 0xCE37, offset: 0xCE37, size: 0x8, addend: 0x0, symName: __ZNSt3__112__hash_tableINS_17__hash_value_typeIcxEENS_22__unordered_map_hasherIcS2_NS_4hashIcEENS_8equal_toIcEELb1EEENS_21__unordered_map_equalIcS2_S7_S5_Lb1EEENS_9allocatorIS2_EEE15max_load_factorB7v160006Ev, symObjAddr: 0x1D14, symBinAddr: 0x100005AE8, symSize: 0x28 }
  - { offsetInCU: 0xCE5D, offset: 0xCE5D, size: 0x8, addend: 0x0, symName: __ZNSt3__112__hash_tableINS_17__hash_value_typeIcxEENS_22__unordered_map_hasherIcS2_NS_4hashIcEENS_8equal_toIcEELb1EEENS_21__unordered_map_equalIcS2_S7_S5_Lb1EEENS_9allocatorIS2_EEE15__rehash_uniqueB7v160006Em, symObjAddr: 0x1D3C, symBinAddr: 0x100005B10, symSize: 0x2C }
  - { offsetInCU: 0xCE91, offset: 0xCE91, size: 0x8, addend: 0x0, symName: __Z4ceilB7v160006f, symObjAddr: 0x1DE4, symBinAddr: 0x100005BB8, symSize: 0x18 }
  - { offsetInCU: 0xCEC0, offset: 0xCEC0, size: 0x8, addend: 0x0, symName: __ZNSt3__116__hash_node_baseIPNS_11__hash_nodeINS_17__hash_value_typeIcxEEPvEEE5__ptrB7v160006Ev, symObjAddr: 0x1DFC, symBinAddr: 0x100005BD0, symSize: 0x24 }
  - { offsetInCU: 0xCEE6, offset: 0xCEE6, size: 0x8, addend: 0x0, symName: __ZNKSt3__110unique_ptrINS_11__hash_nodeINS_17__hash_value_typeIcxEEPvEENS_22__hash_node_destructorINS_9allocatorIS5_EEEEEptB7v160006Ev, symObjAddr: 0x1E20, symBinAddr: 0x100005BF4, symSize: 0x28 }
  - { offsetInCU: 0xCF0C, offset: 0xCF0C, size: 0x8, addend: 0x0, symName: __ZNKSt3__110unique_ptrINS_11__hash_nodeINS_17__hash_value_typeIcxEEPvEENS_22__hash_node_destructorINS_9allocatorIS5_EEEEE3getB7v160006Ev, symObjAddr: 0x1E48, symBinAddr: 0x100005C1C, symSize: 0x28 }
  - { offsetInCU: 0xCF32, offset: 0xCF32, size: 0x8, addend: 0x0, symName: __ZNSt3__110unique_ptrINS_11__hash_nodeINS_17__hash_value_typeIcxEEPvEENS_22__hash_node_destructorINS_9allocatorIS5_EEEEE7releaseB7v160006Ev, symObjAddr: 0x1E70, symBinAddr: 0x100005C44, symSize: 0x44 }
  - { offsetInCU: 0xCF67, offset: 0xCF67, size: 0x8, addend: 0x0, symName: __ZNSt3__110unique_ptrINS_11__hash_nodeINS_17__hash_value_typeIcxEEPvEENS_22__hash_node_destructorINS_9allocatorIS5_EEEEED1B7v160006Ev, symObjAddr: 0x1EB4, symBinAddr: 0x100005C88, symSize: 0x2C }
  - { offsetInCU: 0xCF91, offset: 0xCF91, size: 0x8, addend: 0x0, symName: __ZNSt3__115__hash_iteratorIPNS_11__hash_nodeINS_17__hash_value_typeIcxEEPvEEEC1B7v160006EPNS_16__hash_node_baseIS6_EEPKv, symObjAddr: 0x1EE0, symBinAddr: 0x100005CB4, symSize: 0x3C }
  - { offsetInCU: 0xCFDE, offset: 0xCFDE, size: 0x8, addend: 0x0, symName: __ZNSt3__14pairINS_15__hash_iteratorIPNS_11__hash_nodeINS_17__hash_value_typeIcxEEPvEEEEbEC1B7v160006IS8_RbLS5_0EEEOT_OT0_, symObjAddr: 0x1F1C, symBinAddr: 0x100005CF0, symSize: 0x3C }
  - { offsetInCU: 0xD03C, offset: 0xD03C, size: 0x8, addend: 0x0, symName: __ZNSt3__117__compressed_pairImNS_22__unordered_map_hasherIcNS_17__hash_value_typeIcxEENS_4hashIcEENS_8equal_toIcEELb1EEEE6secondB7v160006Ev, symObjAddr: 0x1F58, symBinAddr: 0x100005D2C, symSize: 0x24 }
  - { offsetInCU: 0xD062, offset: 0xD062, size: 0x8, addend: 0x0, symName: __ZNSt3__122__compressed_pair_elemINS_22__unordered_map_hasherIcNS_17__hash_value_typeIcxEENS_4hashIcEENS_8equal_toIcEELb1EEELi1ELb1EE5__getB7v160006Ev, symObjAddr: 0x1F7C, symBinAddr: 0x100005D50, symSize: 0x14 }
  - { offsetInCU: 0xD088, offset: 0xD088, size: 0x8, addend: 0x0, symName: __ZNKSt3__14hashIcEclB7v160006Ec, symObjAddr: 0x1F90, symBinAddr: 0x100005D64, symSize: 0x18 }
  - { offsetInCU: 0xD0BD, offset: 0xD0BD, size: 0x8, addend: 0x0, symName: __ZNKSt3__110unique_ptrIA_PNS_16__hash_node_baseIPNS_11__hash_nodeINS_17__hash_value_typeIcxEEPvEEEENS_25__bucket_list_deallocatorINS_9allocatorIS9_EEEEE11get_deleterB7v160006Ev, symObjAddr: 0x1FA8, symBinAddr: 0x100005D7C, symSize: 0x24 }
  - { offsetInCU: 0xD0E3, offset: 0xD0E3, size: 0x8, addend: 0x0, symName: __ZNKSt3__125__bucket_list_deallocatorINS_9allocatorIPNS_16__hash_node_baseIPNS_11__hash_nodeINS_17__hash_value_typeIcxEEPvEEEEEEE4sizeB7v160006Ev, symObjAddr: 0x1FCC, symBinAddr: 0x100005DA0, symSize: 0x28 }
  - { offsetInCU: 0xD109, offset: 0xD109, size: 0x8, addend: 0x0, symName: __ZNKSt3__117__compressed_pairIPPNS_16__hash_node_baseIPNS_11__hash_nodeINS_17__hash_value_typeIcxEEPvEEEENS_25__bucket_list_deallocatorINS_9allocatorIS9_EEEEE6secondB7v160006Ev, symObjAddr: 0x1FF4, symBinAddr: 0x100005DC8, symSize: 0x28 }
  - { offsetInCU: 0xD12F, offset: 0xD12F, size: 0x8, addend: 0x0, symName: __ZNKSt3__122__compressed_pair_elemINS_25__bucket_list_deallocatorINS_9allocatorIPNS_16__hash_node_baseIPNS_11__hash_nodeINS_17__hash_value_typeIcxEEPvEEEEEEEELi1ELb0EE5__getB7v160006Ev, symObjAddr: 0x201C, symBinAddr: 0x100005DF0, symSize: 0x14 }
  - { offsetInCU: 0xD155, offset: 0xD155, size: 0x8, addend: 0x0, symName: __ZNKSt3__117__compressed_pairImNS_9allocatorIPNS_16__hash_node_baseIPNS_11__hash_nodeINS_17__hash_value_typeIcxEEPvEEEEEEE5firstB7v160006Ev, symObjAddr: 0x2030, symBinAddr: 0x100005E04, symSize: 0x24 }
  - { offsetInCU: 0xD17B, offset: 0xD17B, size: 0x8, addend: 0x0, symName: __ZNKSt3__122__compressed_pair_elemImLi0ELb0EE5__getB7v160006Ev, symObjAddr: 0x2054, symBinAddr: 0x100005E28, symSize: 0x14 }
  - { offsetInCU: 0xD1A1, offset: 0xD1A1, size: 0x8, addend: 0x0, symName: __ZNKSt3__117__compressed_pairIPPNS_16__hash_node_baseIPNS_11__hash_nodeINS_17__hash_value_typeIcxEEPvEEEENS_25__bucket_list_deallocatorINS_9allocatorIS9_EEEEE5firstB7v160006Ev, symObjAddr: 0x2068, symBinAddr: 0x100005E3C, symSize: 0x24 }
  - { offsetInCU: 0xD1C7, offset: 0xD1C7, size: 0x8, addend: 0x0, symName: __ZNKSt3__122__compressed_pair_elemIPPNS_16__hash_node_baseIPNS_11__hash_nodeINS_17__hash_value_typeIcxEEPvEEEELi0ELb0EE5__getB7v160006Ev, symObjAddr: 0x208C, symBinAddr: 0x100005E60, symSize: 0x14 }
  - { offsetInCU: 0xD1ED, offset: 0xD1ED, size: 0x8, addend: 0x0, symName: __ZNSt3__117__compressed_pairIfNS_21__unordered_map_equalIcNS_17__hash_value_typeIcxEENS_8equal_toIcEENS_4hashIcEELb1EEEE6secondB7v160006Ev, symObjAddr: 0x20A0, symBinAddr: 0x100005E74, symSize: 0x24 }
  - { offsetInCU: 0xD213, offset: 0xD213, size: 0x8, addend: 0x0, symName: __ZNSt3__122__compressed_pair_elemINS_21__unordered_map_equalIcNS_17__hash_value_typeIcxEENS_8equal_toIcEENS_4hashIcEELb1EEELi1ELb1EE5__getB7v160006Ev, symObjAddr: 0x20C4, symBinAddr: 0x100005E98, symSize: 0x14 }
  - { offsetInCU: 0xD239, offset: 0xD239, size: 0x8, addend: 0x0, symName: __ZNKSt3__18equal_toIcEclB7v160006ERKcS3_, symObjAddr: 0x20D8, symBinAddr: 0x100005EAC, symSize: 0x34 }
  - { offsetInCU: 0xD27D, offset: 0xD27D, size: 0x8, addend: 0x0, symName: __ZNKSt3__117__hash_value_typeIcxE11__get_valueB7v160006Ev, symObjAddr: 0x210C, symBinAddr: 0x100005EE0, symSize: 0x14 }
  - { offsetInCU: 0xD2A3, offset: 0xD2A3, size: 0x8, addend: 0x0, symName: __ZNSt3__116allocator_traitsINS_9allocatorINS_11__hash_nodeINS_17__hash_value_typeIcxEEPvEEEEE8allocateB7v160006ERS7_m, symObjAddr: 0x2120, symBinAddr: 0x100005EF4, symSize: 0x2C }
  - { offsetInCU: 0xD2D6, offset: 0xD2D6, size: 0x8, addend: 0x0, symName: __ZNSt3__122__hash_node_destructorINS_9allocatorINS_11__hash_nodeINS_17__hash_value_typeIcxEEPvEEEEEC1B7v160006ERS7_b, symObjAddr: 0x214C, symBinAddr: 0x100005F20, symSize: 0x48 }
  - { offsetInCU: 0xD323, offset: 0xD323, size: 0x8, addend: 0x0, symName: __ZNSt3__110unique_ptrINS_11__hash_nodeINS_17__hash_value_typeIcxEEPvEENS_22__hash_node_destructorINS_9allocatorIS5_EEEEEC1B7v160006ILb1EvEEPS5_NS_16__dependent_typeINS_27__unique_ptr_deleter_sfinaeIS9_EEXT_EE20__good_rval_ref_typeE, symObjAddr: 0x2194, symBinAddr: 0x100005F68, symSize: 0x3C }
  - { offsetInCU: 0xD374, offset: 0xD374, size: 0x8, addend: 0x0, symName: __ZNSt3__116allocator_traitsINS_9allocatorINS_11__hash_nodeINS_17__hash_value_typeIcxEEPvEEEEE9constructB7v160006INS_4pairIKcxEEJRKNS_21piecewise_construct_tENS_5tupleIJRSB_EEENSG_IJEEEEvEEvRS7_PT_DpOT0_, symObjAddr: 0x21D0, symBinAddr: 0x100005FA4, symSize: 0x44 }
  - { offsetInCU: 0xD3F3, offset: 0xD3F3, size: 0x8, addend: 0x0, symName: __ZNSt3__110unique_ptrINS_11__hash_nodeINS_17__hash_value_typeIcxEEPvEENS_22__hash_node_destructorINS_9allocatorIS5_EEEEE11get_deleterB7v160006Ev, symObjAddr: 0x2214, symBinAddr: 0x100005FE8, symSize: 0x24 }
  - { offsetInCU: 0xD419, offset: 0xD419, size: 0x8, addend: 0x0, symName: __ZNSt3__19allocatorINS_11__hash_nodeINS_17__hash_value_typeIcxEEPvEEE8allocateB7v160006Em, symObjAddr: 0x2238, symBinAddr: 0x10000600C, symSize: 0x58 }
  - { offsetInCU: 0xD457, offset: 0xD457, size: 0x8, addend: 0x0, symName: __ZNSt3__116allocator_traitsINS_9allocatorINS_11__hash_nodeINS_17__hash_value_typeIcxEEPvEEEEE8max_sizeB7v160006IS7_vEEmRKS7_, symObjAddr: 0x2290, symBinAddr: 0x100006064, symSize: 0x24 }
  - { offsetInCU: 0xD485, offset: 0xD485, size: 0x8, addend: 0x0, symName: __ZNKSt3__19allocatorINS_11__hash_nodeINS_17__hash_value_typeIcxEEPvEEE8max_sizeB7v160006Ev, symObjAddr: 0x2310, symBinAddr: 0x1000060E4, symSize: 0x14 }
  - { offsetInCU: 0xD4AB, offset: 0xD4AB, size: 0x8, addend: 0x0, symName: __ZNSt3__122__hash_node_destructorINS_9allocatorINS_11__hash_nodeINS_17__hash_value_typeIcxEEPvEEEEEC2B7v160006ERS7_b, symObjAddr: 0x2348, symBinAddr: 0x10000611C, symSize: 0x38 }
  - { offsetInCU: 0xD4F3, offset: 0xD4F3, size: 0x8, addend: 0x0, symName: __ZNSt3__110unique_ptrINS_11__hash_nodeINS_17__hash_value_typeIcxEEPvEENS_22__hash_node_destructorINS_9allocatorIS5_EEEEEC2B7v160006ILb1EvEEPS5_NS_16__dependent_typeINS_27__unique_ptr_deleter_sfinaeIS9_EEXT_EE20__good_rval_ref_typeE, symObjAddr: 0x2380, symBinAddr: 0x100006154, symSize: 0x48 }
  - { offsetInCU: 0xD544, offset: 0xD544, size: 0x8, addend: 0x0, symName: __ZNSt3__117__compressed_pairIPNS_11__hash_nodeINS_17__hash_value_typeIcxEEPvEENS_22__hash_node_destructorINS_9allocatorIS5_EEEEEC1B7v160006IRS6_SA_EEOT_OT0_, symObjAddr: 0x23C8, symBinAddr: 0x10000619C, symSize: 0x3C }
  - { offsetInCU: 0xD59C, offset: 0xD59C, size: 0x8, addend: 0x0, symName: __ZNSt3__117__compressed_pairIPNS_11__hash_nodeINS_17__hash_value_typeIcxEEPvEENS_22__hash_node_destructorINS_9allocatorIS5_EEEEEC2B7v160006IRS6_SA_EEOT_OT0_, symObjAddr: 0x2404, symBinAddr: 0x1000061D8, symSize: 0x48 }
  - { offsetInCU: 0xD5F4, offset: 0xD5F4, size: 0x8, addend: 0x0, symName: __ZNSt3__122__compressed_pair_elemIPNS_11__hash_nodeINS_17__hash_value_typeIcxEEPvEELi0ELb0EEC2B7v160006IRS6_vEEOT_, symObjAddr: 0x244C, symBinAddr: 0x100006220, symSize: 0x24 }
  - { offsetInCU: 0xD636, offset: 0xD636, size: 0x8, addend: 0x0, symName: __ZNSt3__122__compressed_pair_elemINS_22__hash_node_destructorINS_9allocatorINS_11__hash_nodeINS_17__hash_value_typeIcxEEPvEEEEEELi1ELb0EEC2B7v160006IS9_vEEOT_, symObjAddr: 0x2470, symBinAddr: 0x100006244, symSize: 0x24 }
  - { offsetInCU: 0xD678, offset: 0xD678, size: 0x8, addend: 0x0, symName: __ZNSt3__19allocatorINS_11__hash_nodeINS_17__hash_value_typeIcxEEPvEEE9constructB7v160006INS_4pairIKcxEEJRKNS_21piecewise_construct_tENS_5tupleIJRS9_EEENSE_IJEEEEEEvPT_DpOT0_, symObjAddr: 0x2494, symBinAddr: 0x100006268, symSize: 0x44 }
  - { offsetInCU: 0xD6F4, offset: 0xD6F4, size: 0x8, addend: 0x0, symName: __ZNSt3__14pairIKcxEC1B7v160006IJRS1_EJEEENS_21piecewise_construct_tENS_5tupleIJDpT_EEENS6_IJDpT0_EEE, symObjAddr: 0x24D8, symBinAddr: 0x1000062AC, symSize: 0x44 }
  - { offsetInCU: 0xD75B, offset: 0xD75B, size: 0x8, addend: 0x0, symName: __ZNSt3__14pairIKcxEC1B7v160006IJRS1_EJEJLm0EEJEEENS_21piecewise_construct_tERNS_5tupleIJDpT_EEERNS6_IJDpT0_EEENS_15__tuple_indicesIJXspT1_EEEENSF_IJXspT2_EEEE, symObjAddr: 0x251C, symBinAddr: 0x1000062F0, symSize: 0x3C }
  - { offsetInCU: 0xD7EB, offset: 0xD7EB, size: 0x8, addend: 0x0, symName: __ZNSt3__14pairIKcxEC2B7v160006IJRS1_EJEJLm0EEJEEENS_21piecewise_construct_tERNS_5tupleIJDpT_EEERNS6_IJDpT0_EEENS_15__tuple_indicesIJXspT1_EEEENSF_IJXspT2_EEEE, symObjAddr: 0x2558, symBinAddr: 0x10000632C, symSize: 0x48 }
  - { offsetInCU: 0xD87B, offset: 0xD87B, size: 0x8, addend: 0x0, symName: __ZNSt3__112__tuple_leafILm0ERKcLb0EE3getB7v160006Ev, symObjAddr: 0x25C4, symBinAddr: 0x100006398, symSize: 0x18 }
  - { offsetInCU: 0xD8A1, offset: 0xD8A1, size: 0x8, addend: 0x0, symName: __ZNSt3__117__compressed_pairIPNS_11__hash_nodeINS_17__hash_value_typeIcxEEPvEENS_22__hash_node_destructorINS_9allocatorIS5_EEEEE6secondB7v160006Ev, symObjAddr: 0x25DC, symBinAddr: 0x1000063B0, symSize: 0x28 }
  - { offsetInCU: 0xD8C7, offset: 0xD8C7, size: 0x8, addend: 0x0, symName: __ZNSt3__122__compressed_pair_elemINS_22__hash_node_destructorINS_9allocatorINS_11__hash_nodeINS_17__hash_value_typeIcxEEPvEEEEEELi1ELb0EE5__getB7v160006Ev, symObjAddr: 0x2604, symBinAddr: 0x1000063D8, symSize: 0x14 }
  - { offsetInCU: 0xD8ED, offset: 0xD8ED, size: 0x8, addend: 0x0, symName: __ZNSt3__117__compressed_pairImNS_22__unordered_map_hasherIcNS_17__hash_value_typeIcxEENS_4hashIcEENS_8equal_toIcEELb1EEEE5firstB7v160006Ev, symObjAddr: 0x2618, symBinAddr: 0x1000063EC, symSize: 0x24 }
  - { offsetInCU: 0xD913, offset: 0xD913, size: 0x8, addend: 0x0, symName: __ZNSt3__117__compressed_pairIfNS_21__unordered_map_equalIcNS_17__hash_value_typeIcxEENS_8equal_toIcEENS_4hashIcEELb1EEEE5firstB7v160006Ev, symObjAddr: 0x263C, symBinAddr: 0x100006410, symSize: 0x24 }
  - { offsetInCU: 0xD939, offset: 0xD939, size: 0x8, addend: 0x0, symName: __ZNSt3__122__compressed_pair_elemIfLi0ELb0EE5__getB7v160006Ev, symObjAddr: 0x2660, symBinAddr: 0x100006434, symSize: 0x14 }
  - { offsetInCU: 0xD95F, offset: 0xD95F, size: 0x8, addend: 0x0, symName: __ZNSt3__112__hash_tableINS_17__hash_value_typeIcxEENS_22__unordered_map_hasherIcS2_NS_4hashIcEENS_8equal_toIcEELb1EEENS_21__unordered_map_equalIcS2_S7_S5_Lb1EEENS_9allocatorIS2_EEE8__rehashILb1EEEvm, symObjAddr: 0x2674, symBinAddr: 0x100006448, symSize: 0x1A8 }
  - { offsetInCU: 0xD9AF, offset: 0xD9AF, size: 0x8, addend: 0x0, symName: __ZNSt3__112__hash_tableINS_17__hash_value_typeIcxEENS_22__unordered_map_hasherIcS2_NS_4hashIcEENS_8equal_toIcEELb1EEENS_21__unordered_map_equalIcS2_S7_S5_Lb1EEENS_9allocatorIS2_EEE11__do_rehashILb1EEEvm, symObjAddr: 0x281C, symBinAddr: 0x1000065F0, symSize: 0x290 }
  - { offsetInCU: 0xDA96, offset: 0xDA96, size: 0x8, addend: 0x0, symName: __ZNSt3__110unique_ptrIA_PNS_16__hash_node_baseIPNS_11__hash_nodeINS_17__hash_value_typeIcxEEPvEEEENS_25__bucket_list_deallocatorINS_9allocatorIS9_EEEEE11get_deleterB7v160006Ev, symObjAddr: 0x2B28, symBinAddr: 0x1000068FC, symSize: 0x24 }
  - { offsetInCU: 0xDABC, offset: 0xDABC, size: 0x8, addend: 0x0, symName: __ZNSt3__110unique_ptrIA_PNS_16__hash_node_baseIPNS_11__hash_nodeINS_17__hash_value_typeIcxEEPvEEEENS_25__bucket_list_deallocatorINS_9allocatorIS9_EEEEE5resetB7v160006IPS9_EENS_9enable_ifIXsr28_CheckArrayPointerConversionIT_EE5valueEvE4typeESJ_, symObjAddr: 0x2B4C, symBinAddr: 0x100006920, symSize: 0x78 }
  - { offsetInCU: 0xDB09, offset: 0xDB09, size: 0x8, addend: 0x0, symName: __ZNSt3__116allocator_traitsINS_9allocatorIPNS_16__hash_node_baseIPNS_11__hash_nodeINS_17__hash_value_typeIcxEEPvEEEEEEE8allocateB7v160006ERSB_m, symObjAddr: 0x2BC4, symBinAddr: 0x100006998, symSize: 0x2C }
  - { offsetInCU: 0xDB3C, offset: 0xDB3C, size: 0x8, addend: 0x0, symName: __ZNSt3__19allocatorIPNS_16__hash_node_baseIPNS_11__hash_nodeINS_17__hash_value_typeIcxEEPvEEEEE8allocateB7v160006Em, symObjAddr: 0x2BF0, symBinAddr: 0x1000069C4, symSize: 0x58 }
  - { offsetInCU: 0xDB7A, offset: 0xDB7A, size: 0x8, addend: 0x0, symName: __ZNSt3__116allocator_traitsINS_9allocatorIPNS_16__hash_node_baseIPNS_11__hash_nodeINS_17__hash_value_typeIcxEEPvEEEEEEE8max_sizeB7v160006ISB_vEEmRKSB_, symObjAddr: 0x2C48, symBinAddr: 0x100006A1C, symSize: 0x24 }
  - { offsetInCU: 0xDBA8, offset: 0xDBA8, size: 0x8, addend: 0x0, symName: __ZNKSt3__19allocatorIPNS_16__hash_node_baseIPNS_11__hash_nodeINS_17__hash_value_typeIcxEEPvEEEEE8max_sizeB7v160006Ev, symObjAddr: 0x2C6C, symBinAddr: 0x100006A40, symSize: 0x14 }
  - { offsetInCU: 0xDBD8, offset: 0xDBD8, size: 0x8, addend: 0x0, symName: __ZNKSt3__16__lessImmEclB7v160006ERKmS3_, symObjAddr: 0x2CF0, symBinAddr: 0x100006AC4, symSize: 0x34 }
  - { offsetInCU: 0xDC1A, offset: 0xDC1A, size: 0x8, addend: 0x0, symName: __ZNKSt3__117__compressed_pairIPNS_11__hash_nodeINS_17__hash_value_typeIcxEEPvEENS_22__hash_node_destructorINS_9allocatorIS5_EEEEE5firstB7v160006Ev, symObjAddr: 0x2D24, symBinAddr: 0x100006AF8, symSize: 0x24 }
  - { offsetInCU: 0xDC40, offset: 0xDC40, size: 0x8, addend: 0x0, symName: __ZNKSt3__122__compressed_pair_elemIPNS_11__hash_nodeINS_17__hash_value_typeIcxEEPvEELi0ELb0EE5__getB7v160006Ev, symObjAddr: 0x2D48, symBinAddr: 0x100006B1C, symSize: 0x14 }
  - { offsetInCU: 0xDC66, offset: 0xDC66, size: 0x8, addend: 0x0, symName: __ZNSt3__117__compressed_pairIPNS_11__hash_nodeINS_17__hash_value_typeIcxEEPvEENS_22__hash_node_destructorINS_9allocatorIS5_EEEEE5firstB7v160006Ev, symObjAddr: 0x2D5C, symBinAddr: 0x100006B30, symSize: 0x24 }
  - { offsetInCU: 0xDC8C, offset: 0xDC8C, size: 0x8, addend: 0x0, symName: __ZNSt3__122__compressed_pair_elemIPNS_11__hash_nodeINS_17__hash_value_typeIcxEEPvEELi0ELb0EE5__getB7v160006Ev, symObjAddr: 0x2D80, symBinAddr: 0x100006B54, symSize: 0x14 }
  - { offsetInCU: 0xDCB2, offset: 0xDCB2, size: 0x8, addend: 0x0, symName: __ZNSt3__110unique_ptrINS_11__hash_nodeINS_17__hash_value_typeIcxEEPvEENS_22__hash_node_destructorINS_9allocatorIS5_EEEEED2B7v160006Ev, symObjAddr: 0x2D94, symBinAddr: 0x100006B68, symSize: 0x30 }
  - { offsetInCU: 0xDCDC, offset: 0xDCDC, size: 0x8, addend: 0x0, symName: __ZNSt3__110unique_ptrINS_11__hash_nodeINS_17__hash_value_typeIcxEEPvEENS_22__hash_node_destructorINS_9allocatorIS5_EEEEE5resetB7v160006EPS5_, symObjAddr: 0x2DC4, symBinAddr: 0x100006B98, symSize: 0x78 }
  - { offsetInCU: 0xDD20, offset: 0xDD20, size: 0x8, addend: 0x0, symName: __ZNSt3__122__hash_node_destructorINS_9allocatorINS_11__hash_nodeINS_17__hash_value_typeIcxEEPvEEEEEclB7v160006EPS6_, symObjAddr: 0x2E3C, symBinAddr: 0x100006C10, symSize: 0x94 }
  - { offsetInCU: 0xDD55, offset: 0xDD55, size: 0x8, addend: 0x0, symName: __ZNSt3__115__hash_iteratorIPNS_11__hash_nodeINS_17__hash_value_typeIcxEEPvEEEC2B7v160006EPNS_16__hash_node_baseIS6_EEPKv, symObjAddr: 0x2ED0, symBinAddr: 0x100006CA4, symSize: 0x24 }
  - { offsetInCU: 0xDD9D, offset: 0xDD9D, size: 0x8, addend: 0x0, symName: __ZNSt3__14pairINS_15__hash_iteratorIPNS_11__hash_nodeINS_17__hash_value_typeIcxEEPvEEEEbEC2B7v160006IS8_RbLS5_0EEEOT_OT0_, symObjAddr: 0x2EF4, symBinAddr: 0x100006CC8, symSize: 0x38 }
  - { offsetInCU: 0xDDFB, offset: 0xDDFB, size: 0x8, addend: 0x0, symName: __ZNSt3__15tupleIJRKcEEC1B7v160006INS_4_AndELi0EEES2_, symObjAddr: 0x2F2C, symBinAddr: 0x100006D00, symSize: 0x34 }
  - { offsetInCU: 0xDE43, offset: 0xDE43, size: 0x8, addend: 0x0, symName: __ZNSt3__15tupleIJRKcEEC2B7v160006INS_4_AndELi0EEES2_, symObjAddr: 0x2F60, symBinAddr: 0x100006D34, symSize: 0x34 }
  - { offsetInCU: 0xDE8B, offset: 0xDE8B, size: 0x8, addend: 0x0, symName: __ZNSt3__112__tuple_implINS_15__tuple_indicesIJLm0EEEEJRKcEEC1B7v160006IJLm0EEJS4_EJEJEJS4_EEENS1_IJXspT_EEEENS_13__tuple_typesIJDpT0_EEENS1_IJXspT1_EEEENS8_IJDpT2_EEEDpOT3_, symObjAddr: 0x2F94, symBinAddr: 0x100006D68, symSize: 0x34 }
  - { offsetInCU: 0xDF20, offset: 0xDF20, size: 0x8, addend: 0x0, symName: __ZNSt3__112__tuple_implINS_15__tuple_indicesIJLm0EEEEJRKcEEC2B7v160006IJLm0EEJS4_EJEJEJS4_EEENS1_IJXspT_EEEENS_13__tuple_typesIJDpT0_EEENS1_IJXspT1_EEEENS8_IJDpT2_EEEDpOT3_, symObjAddr: 0x2FC8, symBinAddr: 0x100006D9C, symSize: 0x34 }
  - { offsetInCU: 0xDFB5, offset: 0xDFB5, size: 0x8, addend: 0x0, symName: __ZNSt3__112__tuple_leafILm0ERKcLb0EEC2B7v160006IS2_vEEOT_, symObjAddr: 0x2FFC, symBinAddr: 0x100006DD0, symSize: 0x20 }
  - { offsetInCU: 0xDFF8, offset: 0xDFF8, size: 0x8, addend: 0x0, symName: __ZNSt3__114pointer_traitsIPNS_17__hash_value_typeIcxEEE10pointer_toB7v160006ERS2_, symObjAddr: 0x301C, symBinAddr: 0x100006DF0, symSize: 0x14 }
  - { offsetInCU: 0xE01B, offset: 0xE01B, size: 0x8, addend: 0x0, symName: __ZNSt3__111char_traitsIcE6lengthEPKc, symObjAddr: 0x321C, symBinAddr: 0x100006FF0, symSize: 0x34 }
  - { offsetInCU: 0xE05C, offset: 0xE05C, size: 0x8, addend: 0x0, symName: __ZNKSt3__113basic_ostreamIcNS_11char_traitsIcEEE6sentrycvbB7v160006Ev, symObjAddr: 0x3250, symBinAddr: 0x100007024, symSize: 0x1C }
  - { offsetInCU: 0xE082, offset: 0xE082, size: 0x8, addend: 0x0, symName: __ZNSt3__119ostreambuf_iteratorIcNS_11char_traitsIcEEEC1B7v160006ERNS_13basic_ostreamIcS2_EE, symObjAddr: 0x34AC, symBinAddr: 0x100007280, symSize: 0x34 }
  - { offsetInCU: 0xE0BA, offset: 0xE0BA, size: 0x8, addend: 0x0, symName: __ZNKSt3__18ios_base5flagsB7v160006Ev, symObjAddr: 0x34E0, symBinAddr: 0x1000072B4, symSize: 0x18 }
  - { offsetInCU: 0xE0E2, offset: 0xE0E2, size: 0x8, addend: 0x0, symName: __ZNKSt3__19basic_iosIcNS_11char_traitsIcEEE4fillB7v160006Ev, symObjAddr: 0x34F8, symBinAddr: 0x1000072CC, symSize: 0x64 }
  - { offsetInCU: 0xE10A, offset: 0xE10A, size: 0x8, addend: 0x0, symName: __ZNKSt3__119ostreambuf_iteratorIcNS_11char_traitsIcEEE6failedB7v160006Ev, symObjAddr: 0x355C, symBinAddr: 0x100007330, symSize: 0x24 }
  - { offsetInCU: 0xE130, offset: 0xE130, size: 0x8, addend: 0x0, symName: __ZNKSt3__18ios_base5widthB7v160006Ev, symObjAddr: 0x3580, symBinAddr: 0x100007354, symSize: 0x18 }
  - { offsetInCU: 0xE158, offset: 0xE158, size: 0x8, addend: 0x0, symName: __ZNSt3__115basic_streambufIcNS_11char_traitsIcEEE5sputnB7v160006EPKcl, symObjAddr: 0x3598, symBinAddr: 0x10000736C, symSize: 0x3C }
  - { offsetInCU: 0xE19A, offset: 0xE19A, size: 0x8, addend: 0x0, symName: __ZNSt3__112basic_stringIcNS_11char_traitsIcEENS_9allocatorIcEEEC1B7v160006Emc, symObjAddr: 0x35D4, symBinAddr: 0x1000073A8, symSize: 0x3C }
  - { offsetInCU: 0xE1E2, offset: 0xE1E2, size: 0x8, addend: 0x0, symName: __ZNKSt3__112basic_stringIcNS_11char_traitsIcEENS_9allocatorIcEEE4dataB7v160006Ev, symObjAddr: 0x3610, symBinAddr: 0x1000073E4, symSize: 0x28 }
  - { offsetInCU: 0xE208, offset: 0xE208, size: 0x8, addend: 0x0, symName: __ZNSt3__18ios_base5widthB7v160006El, symObjAddr: 0x3638, symBinAddr: 0x10000740C, symSize: 0x2C }
  - { offsetInCU: 0xE24E, offset: 0xE24E, size: 0x8, addend: 0x0, symName: __ZNSt3__112basic_stringIcNS_11char_traitsIcEENS_9allocatorIcEEEC2B7v160006Emc, symObjAddr: 0x3664, symBinAddr: 0x100007438, symSize: 0x54 }
  - { offsetInCU: 0xE296, offset: 0xE296, size: 0x8, addend: 0x0, symName: __ZNSt3__117__compressed_pairINS_12basic_stringIcNS_11char_traitsIcEENS_9allocatorIcEEE5__repES5_EC1B7v160006INS_18__default_init_tagESA_EEOT_OT0_, symObjAddr: 0x36B8, symBinAddr: 0x10000748C, symSize: 0x3C }
  - { offsetInCU: 0xE2EE, offset: 0xE2EE, size: 0x8, addend: 0x0, symName: __ZNSt3__117__compressed_pairINS_12basic_stringIcNS_11char_traitsIcEENS_9allocatorIcEEE5__repES5_EC2B7v160006INS_18__default_init_tagESA_EEOT_OT0_, symObjAddr: 0x3704, symBinAddr: 0x1000074D8, symSize: 0x3C }
  - { offsetInCU: 0xE346, offset: 0xE346, size: 0x8, addend: 0x0, symName: __ZNSt3__122__compressed_pair_elemINS_12basic_stringIcNS_11char_traitsIcEENS_9allocatorIcEEE5__repELi0ELb0EEC2B7v160006ENS_18__default_init_tagE, symObjAddr: 0x3740, symBinAddr: 0x100007514, symSize: 0x14 }
  - { offsetInCU: 0xE37B, offset: 0xE37B, size: 0x8, addend: 0x0, symName: __ZNSt3__122__compressed_pair_elemINS_9allocatorIcEELi1ELb1EEC2B7v160006ENS_18__default_init_tagE, symObjAddr: 0x3754, symBinAddr: 0x100007528, symSize: 0x2C }
  - { offsetInCU: 0xE3B0, offset: 0xE3B0, size: 0x8, addend: 0x0, symName: __ZNSt3__19allocatorIcEC2B7v160006Ev, symObjAddr: 0x3780, symBinAddr: 0x100007554, symSize: 0x2C }
  - { offsetInCU: 0xE3DA, offset: 0xE3DA, size: 0x8, addend: 0x0, symName: __ZNSt3__116__non_trivial_ifILb1ENS_9allocatorIcEEEC2B7v160006Ev, symObjAddr: 0x37AC, symBinAddr: 0x100007580, symSize: 0x14 }
  - { offsetInCU: 0xE404, offset: 0xE404, size: 0x8, addend: 0x0, symName: __ZNKSt3__112basic_stringIcNS_11char_traitsIcEENS_9allocatorIcEEE13__get_pointerB7v160006Ev, symObjAddr: 0x37D4, symBinAddr: 0x1000075A8, symSize: 0x54 }
  - { offsetInCU: 0xE42A, offset: 0xE42A, size: 0x8, addend: 0x0, symName: __ZNKSt3__112basic_stringIcNS_11char_traitsIcEENS_9allocatorIcEEE9__is_longB7v160006Ev, symObjAddr: 0x3828, symBinAddr: 0x1000075FC, symSize: 0x38 }
  - { offsetInCU: 0xE450, offset: 0xE450, size: 0x8, addend: 0x0, symName: __ZNKSt3__112basic_stringIcNS_11char_traitsIcEENS_9allocatorIcEEE18__get_long_pointerB7v160006Ev, symObjAddr: 0x3860, symBinAddr: 0x100007634, symSize: 0x28 }
  - { offsetInCU: 0xE476, offset: 0xE476, size: 0x8, addend: 0x0, symName: __ZNKSt3__112basic_stringIcNS_11char_traitsIcEENS_9allocatorIcEEE19__get_short_pointerB7v160006Ev, symObjAddr: 0x3888, symBinAddr: 0x10000765C, symSize: 0x28 }
  - { offsetInCU: 0xE49C, offset: 0xE49C, size: 0x8, addend: 0x0, symName: __ZNKSt3__117__compressed_pairINS_12basic_stringIcNS_11char_traitsIcEENS_9allocatorIcEEE5__repES5_E5firstB7v160006Ev, symObjAddr: 0x38B0, symBinAddr: 0x100007684, symSize: 0x24 }
  - { offsetInCU: 0xE4C2, offset: 0xE4C2, size: 0x8, addend: 0x0, symName: __ZNKSt3__122__compressed_pair_elemINS_12basic_stringIcNS_11char_traitsIcEENS_9allocatorIcEEE5__repELi0ELb0EE5__getB7v160006Ev, symObjAddr: 0x38D4, symBinAddr: 0x1000076A8, symSize: 0x14 }
  - { offsetInCU: 0xE4E8, offset: 0xE4E8, size: 0x8, addend: 0x0, symName: __ZNSt3__114pointer_traitsIPKcE10pointer_toB7v160006ERS1_, symObjAddr: 0x38E8, symBinAddr: 0x1000076BC, symSize: 0x14 }
  - { offsetInCU: 0xE50B, offset: 0xE50B, size: 0x8, addend: 0x0, symName: __ZNSt3__119ostreambuf_iteratorIcNS_11char_traitsIcEEEC2B7v160006ERNS_13basic_ostreamIcS2_EE, symObjAddr: 0x38FC, symBinAddr: 0x1000076D0, symSize: 0x54 }
  - { offsetInCU: 0xE543, offset: 0xE543, size: 0x8, addend: 0x0, symName: __ZNKSt3__19basic_iosIcNS_11char_traitsIcEEE5widenB7v160006Ec, symObjAddr: 0x3950, symBinAddr: 0x100007724, symSize: 0x84 }
  - { offsetInCU: 0xE5B1, offset: 0xE5B1, size: 0x8, addend: 0x0, symName: __ZNKSt3__15ctypeIcE5widenB7v160006Ec, symObjAddr: 0x3A00, symBinAddr: 0x1000077D4, symSize: 0x38 }
  - { offsetInCU: 0xE5E6, offset: 0xE5E6, size: 0x8, addend: 0x0, symName: __ZNSt3__112__hash_tableINS_17__hash_value_typeIcxEENS_22__unordered_map_hasherIcS2_NS_4hashIcEENS_8equal_toIcEELb1EEENS_21__unordered_map_equalIcS2_S7_S5_Lb1EEENS_9allocatorIS2_EEE5clearEv, symObjAddr: 0x3A5C, symBinAddr: 0x100007830, symSize: 0xCC }
...
